target datalayout = "e-m:e-p270:32:32-p271:32:32-p272:64:64-i64:64-i128:128-f80:128-n8:16:32:64-S128"
target triple = "x86_64-pc-linux-gnu"

%"struct.XDR::xdr_ops" = type { ptr, ptr, ptr, ptr, ptr, ptr, ptr, ptr, ptr, ptr }
%struct.XDR = type { i32, ptr, ptr, ptr, ptr, i32 }

@.str.1 = private unnamed_addr constant [186 x i8] c"Error when detecting floating-point word order.\0ADo you have a non-IEEE system?\0AIf possible, use the XDR libraries provided with your system,\0Ainstead of the GROMACS fallback XDR source.\0A\00", align 1

; Function Attrs: mustprogress uwtable
define noundef i32 @_Z10xdr_doubleP3XDRPd(ptr noundef %0, ptr noundef %1) #0 {
  %3 = alloca i32, align 4
  %4 = alloca ptr, align 8
  %5 = alloca ptr, align 8
  %6 = alloca i32, align 4
  %7 = alloca ptr, align 8
  %8 = alloca [2 x i32], align 4
  %9 = alloca double, align 8
  %10 = alloca i8, align 1
  store ptr %0, ptr %4, align 8
  store ptr %1, ptr %5, align 8
  store i32 -1, ptr %6, align 4
  %11 = load i32, ptr %6, align 4
  %12 = icmp slt i32 %11, 0
  br i1 %12, label %13, label %36

13:                                               ; preds = %2
  store double 0x3FEF9ADD3C0E56B8, ptr %9, align 8
  %14 = load i8, ptr %9, align 8
  store i8 %14, ptr %10, align 1
  %15 = load i8, ptr %10, align 1
  %16 = zext i8 %15 to i32
  %17 = icmp eq i32 %16, 221
  br i1 %17, label %22, label %18

18:                                               ; preds = %13
  %19 = load i8, ptr %10, align 1
  %20 = zext i8 %19 to i32
  %21 = icmp eq i32 %20, 63
  br i1 %21, label %22, label %23

22:                                               ; preds = %18, %13
  store i32 1, ptr %6, align 4
  br label %35

23:                                               ; preds = %18
  %24 = load i8, ptr %10, align 1
  %25 = zext i8 %24 to i32
  %26 = icmp eq i32 %25, 184
  br i1 %26, label %31, label %27

27:                                               ; preds = %23
  %28 = load i8, ptr %10, align 1
  %29 = zext i8 %28 to i32
  %30 = icmp eq i32 %29, 60
  br i1 %30, label %31, label %32

31:                                               ; preds = %27, %23
  store i32 0, ptr %6, align 4
  br label %34

32:                                               ; preds = %27
  %33 = call i32 (ptr, ...) @printf(ptr noundef @.str.1)
  call void @exit(i32 noundef 0) #10
  unreachable

34:                                               ; preds = %31
  br label %35

35:                                               ; preds = %34, %22
  br label %36

36:                                               ; preds = %35, %2
  %37 = load ptr, ptr %4, align 8
  %38 = getelementptr inbounds %struct.XDR, ptr %37, i32 0, i32 0
  %39 = load i32, ptr %38, align 8
  switch i32 %39, label %119 [
    i32 0, label %40
    i32 1, label %78
    i32 2, label %118
  ]

40:                                               ; preds = %36
  %41 = load ptr, ptr %5, align 8
  store ptr %41, ptr %7, align 8
  %42 = load ptr, ptr %7, align 8
  %43 = load i32, ptr %6, align 4
  %44 = icmp eq i32 %43, 0
  %45 = zext i1 %44 to i64
  %46 = getelementptr inbounds i32, ptr %42, i64 %45
  %47 = load i32, ptr %46, align 4
  %48 = getelementptr inbounds [2 x i32], ptr %8, i64 0, i64 0
  store i32 %47, ptr %48, align 4
  %49 = load ptr, ptr %7, align 8
  %50 = load i32, ptr %6, align 4
  %51 = sext i32 %50 to i64
  %52 = getelementptr inbounds i32, ptr %49, i64 %51
  %53 = load i32, ptr %52, align 4
  %54 = getelementptr inbounds [2 x i32], ptr %8, i64 0, i64 1
  store i32 %53, ptr %54, align 4
  %55 = load ptr, ptr %4, align 8
  %56 = getelementptr inbounds %struct.XDR, ptr %55, i32 0, i32 1
  %57 = load ptr, ptr %56, align 8
  %58 = getelementptr inbounds %"struct.XDR::xdr_ops", ptr %57, i32 0, i32 7
  %59 = load ptr, ptr %58, align 8
  %60 = load ptr, ptr %4, align 8
  %61 = getelementptr inbounds [2 x i32], ptr %8, i64 0, i64 0
  %62 = call noundef i32 %59(ptr noundef %60, ptr noundef %61)
  %63 = icmp ne i32 %62, 0
  br i1 %63, label %64, label %75

64:                                               ; preds = %40
  %65 = load ptr, ptr %4, align 8
  %66 = getelementptr inbounds %struct.XDR, ptr %65, i32 0, i32 1
  %67 = load ptr, ptr %66, align 8
  %68 = getelementptr inbounds %"struct.XDR::xdr_ops", ptr %67, i32 0, i32 7
  %69 = load ptr, ptr %68, align 8
  %70 = load ptr, ptr %4, align 8
  %71 = getelementptr inbounds [2 x i32], ptr %8, i64 0, i64 0
  %72 = getelementptr inbounds i32, ptr %71, i64 1
  %73 = call noundef i32 %69(ptr noundef %70, ptr noundef %72)
  %74 = icmp ne i32 %73, 0
  br label %75

75:                                               ; preds = %64, %40
  %76 = phi i1 [ false, %40 ], [ %74, %64 ]
  %77 = zext i1 %76 to i32
  store i32 %77, ptr %3, align 4
  br label %120

78:                                               ; preds = %36
  %79 = load ptr, ptr %5, align 8
  store ptr %79, ptr %7, align 8
  %80 = load ptr, ptr %4, align 8
  %81 = getelementptr inbounds %struct.XDR, ptr %80, i32 0, i32 1
  %82 = load ptr, ptr %81, align 8
  %83 = getelementptr inbounds %"struct.XDR::xdr_ops", ptr %82, i32 0, i32 6
  %84 = load ptr, ptr %83, align 8
  %85 = load ptr, ptr %4, align 8
  %86 = getelementptr inbounds [2 x i32], ptr %8, i64 0, i64 0
  %87 = load i32, ptr %6, align 4
  %88 = icmp ne i32 %87, 0
  %89 = xor i1 %88, true
  %90 = zext i1 %89 to i32
  %91 = sext i32 %90 to i64
  %92 = getelementptr inbounds i32, ptr %86, i64 %91
  %93 = call noundef i32 %84(ptr noundef %85, ptr noundef %92)
  %94 = icmp ne i32 %93, 0
  br i1 %94, label %95, label %117

95:                                               ; preds = %78
  %96 = load ptr, ptr %4, align 8
  %97 = getelementptr inbounds %struct.XDR, ptr %96, i32 0, i32 1
  %98 = load ptr, ptr %97, align 8
  %99 = getelementptr inbounds %"struct.XDR::xdr_ops", ptr %98, i32 0, i32 6
  %100 = load ptr, ptr %99, align 8
  %101 = load ptr, ptr %4, align 8
  %102 = getelementptr inbounds [2 x i32], ptr %8, i64 0, i64 0
  %103 = load i32, ptr %6, align 4
  %104 = sext i32 %103 to i64
  %105 = getelementptr inbounds i32, ptr %102, i64 %104
  %106 = call noundef i32 %100(ptr noundef %101, ptr noundef %105)
  %107 = icmp ne i32 %106, 0
  br i1 %107, label %108, label %117

108:                                              ; preds = %95
  %109 = getelementptr inbounds [2 x i32], ptr %8, i64 0, i64 0
  %110 = load i32, ptr %109, align 4
  %111 = load ptr, ptr %7, align 8
  %112 = getelementptr inbounds i32, ptr %111, i64 0
  store i32 %110, ptr %112, align 4
  %113 = getelementptr inbounds [2 x i32], ptr %8, i64 0, i64 1
  %114 = load i32, ptr %113, align 4
  %115 = load ptr, ptr %7, align 8
  %116 = getelementptr inbounds i32, ptr %115, i64 1
  store i32 %114, ptr %116, align 4
  store i32 1, ptr %3, align 4
  br label %120

117:                                              ; preds = %95, %78
  br label %119

118:                                              ; preds = %36
  store i32 1, ptr %3, align 4
  br label %120

119:                                              ; preds = %117, %36
  store i32 0, ptr %3, align 4
  br label %120

120:                                              ; preds = %119, %118, %108, %75
  %121 = load i32, ptr %3, align 4
  ret i32 %121
}