; Function Attrs: mustprogress uwtable
define noundef i32 @_Z10xdr_doubleP3XDRPd(ptr noundef %0, ptr nocapture noundef %1) local_unnamed_addr #0 {
  %3 = alloca [2 x i32], align 8
  %4 = load i32, ptr %0, align 8
  switch i32 %4, label %35 [
    i32 0, label %5
    i32 1, label %21
    i32 2, label %36
  ]

5:                                                ; preds = %2
  %6 = load <2 x i32>, ptr %1, align 4
  %7 = shufflevector <2 x i32> %6, <2 x i32> poison, <2 x i32> <i32 1, i32 0>
  store <2 x i32> %7, ptr %3, align 8
  %8 = getelementptr inbounds i8, ptr %0, i64 8
  %9 = load ptr, ptr %8, align 8
  %10 = getelementptr inbounds i8, ptr %9, i64 56
  %11 = load ptr, ptr %10, align 8
  %12 = call noundef i32 %11(ptr noundef nonnull %0, ptr noundef nonnull %3)
  %.not32 = icmp eq i32 %12, 0
  br i1 %.not32, label %36, label %13

13:                                               ; preds = %5
  %14 = getelementptr inbounds i8, ptr %3, i64 4
  %15 = load ptr, ptr %8, align 8
  %16 = getelementptr inbounds i8, ptr %15, i64 56
  %17 = load ptr, ptr %16, align 8
  %18 = call noundef i32 %17(ptr noundef nonnull %0, ptr noundef nonnull %14)
  %19 = icmp ne i32 %18, 0
  %20 = zext i1 %19 to i32
  br label %36

21:                                               ; preds = %2
  %22 = getelementptr inbounds i8, ptr %0, i64 8
  %23 = load ptr, ptr %22, align 8
  %24 = getelementptr inbounds i8, ptr %23, i64 48
  %25 = load ptr, ptr %24, align 8
  %26 = getelementptr inbounds i8, ptr %3, i64 4
  %27 = call noundef i32 %25(ptr noundef nonnull %0, ptr noundef nonnull %26)
  %.not = icmp eq i32 %27, 0
  br i1 %.not, label %35, label %28

28:                                               ; preds = %21
  %29 = load ptr, ptr %22, align 8
  %30 = getelementptr inbounds i8, ptr %29, i64 48
  %31 = load ptr, ptr %30, align 8
  %32 = call noundef i32 %31(ptr noundef nonnull %0, ptr noundef nonnull %3)
  %.not31 = icmp eq i32 %32, 0
  br i1 %.not31, label %35, label %33

33:                                               ; preds = %28
  %34 = load <2 x i32>, ptr %3, align 8
  store <2 x i32> %34, ptr %1, align 4
  br label %36

35:                                               ; preds = %21, %28, %2
  br label %36

36:                                               ; preds = %2, %5, %13, %35, %33
  %.0 = phi i32 [ 0, %35 ], [ 1, %33 ], [ 0, %5 ], [ %20, %13 ], [ 1, %2 ]
  ret i32 %.0
}